target datalayout = "e-m:e-p270:32:32-p271:32:32-p272:64:64-i64:64-i128:128-f80:128-n8:16:32:64-S128"
target triple = "x86_64-pc-linux-gnu"

; Function Attrs: nounwind uwtable
define ptr @lv_sdl_keyboard_create() #0 {
  %1 = alloca ptr, align 8
  %2 = alloca ptr, align 8
  %3 = alloca i32, align 4
  %4 = alloca ptr, align 8
  call void @llvm.lifetime.start.p0(i64 8, ptr %2) #4
  %5 = call ptr @lv_malloc_zeroed(i64 noundef 33)
  store ptr %5, ptr %2, align 8, !tbaa !3
  br label %6

6:                                                ; preds = %0
  %7 = load ptr, ptr %2, align 8, !tbaa !3
  %8 = icmp ne ptr %7, null
  br i1 %8, label %15, label %9

9:                                                ; preds = %6
  br label %10

10:                                               ; preds = %9
  br label %11

11:                                               ; preds = %10
  br label %12

12:                                               ; preds = %11
  br label %13

13:                                               ; preds = %14, %12
  br label %14

14:                                               ; preds = %13
  br label %13

15:                                               ; preds = %6
  br label %16

16:                                               ; preds = %15
  br label %17

17:                                               ; preds = %16
  %18 = load ptr, ptr %2, align 8, !tbaa !3
  %19 = icmp eq ptr %18, null
  br i1 %19, label %20, label %21

20:                                               ; preds = %17
  store ptr null, ptr %1, align 8
  store i32 1, ptr %3, align 4
  br label %49

21:                                               ; preds = %17
  call void @llvm.lifetime.start.p0(i64 8, ptr %4) #4
  %22 = call ptr @lv_indev_create()
  store ptr %22, ptr %4, align 8, !tbaa !3
  br label %23

23:                                               ; preds = %21
  %24 = load ptr, ptr %4, align 8, !tbaa !3
  %25 = icmp ne ptr %24, null
  br i1 %25, label %32, label %26

26:                                               ; preds = %23
  br label %27

27:                                               ; preds = %26
  br label %28

28:                                               ; preds = %27
  br label %29

29:                                               ; preds = %28
  br label %30

30:                                               ; preds = %31, %29
  br label %31

31:                                               ; preds = %30
  br label %30

32:                                               ; preds = %23
  br label %33

33:                                               ; preds = %32
  br label %34

34:                                               ; preds = %33
  %35 = load ptr, ptr %4, align 8, !tbaa !3
  %36 = icmp eq ptr %35, null
  br i1 %36, label %37, label %39

37:                                               ; preds = %34
  %38 = load ptr, ptr %2, align 8, !tbaa !3
  call void @lv_free(ptr noundef %38)
  store ptr null, ptr %1, align 8
  store i32 1, ptr %3, align 4
  br label %48

39:                                               ; preds = %34
  %40 = load ptr, ptr %4, align 8, !tbaa !3
  call void @lv_indev_set_type(ptr noundef %40, i32 noundef 2)
  %41 = load ptr, ptr %4, align 8, !tbaa !3
  call void @lv_indev_set_read_cb(ptr noundef %41, ptr noundef @sdl_keyboard_read)
  %42 = load ptr, ptr %4, align 8, !tbaa !3
  %43 = load ptr, ptr %2, align 8, !tbaa !3
  call void @lv_indev_set_driver_data(ptr noundef %42, ptr noundef %43)
  %44 = load ptr, ptr %4, align 8, !tbaa !3
  call void @lv_indev_set_mode(ptr noundef %44, i32 noundef 2)
  %45 = load ptr, ptr %4, align 8, !tbaa !3
  %46 = load ptr, ptr %4, align 8, !tbaa !3
  call void @lv_indev_add_event_cb(ptr noundef %45, ptr noundef @release_indev_cb, i32 noundef 41, ptr noundef %46)
  %47 = load ptr, ptr %4, align 8, !tbaa !3
  store ptr %47, ptr %1, align 8
  store i32 1, ptr %3, align 4
  br label %48

48:                                               ; preds = %39, %37
  call void @llvm.lifetime.end.p0(i64 8, ptr %4) #4
  br label %49

49:                                               ; preds = %48, %20
  call void @llvm.lifetime.end.p0(i64 8, ptr %2) #4
  %50 = load ptr, ptr %1, align 8
  ret ptr %50
}