; Function Attrs: nounwind uwtable
define nonnull ptr @lv_sdl_keyboard_create() local_unnamed_addr #0 {
  %1 = tail call ptr @lv_malloc_zeroed(i64 noundef 33) #3
  %.not = icmp eq ptr %1, null
  br i1 %.not, label %.preheader, label %2

.preheader:                                       ; preds = %0, %.preheader
  br label %.preheader

2:                                                ; preds = %0
  %3 = tail call ptr @lv_indev_create() #3
  %.not16 = icmp eq ptr %3, null
  br i1 %.not16, label %.preheader17, label %4

.preheader17:                                     ; preds = %2, %.preheader17
  br label %.preheader17

4:                                                ; preds = %2
  tail call void @lv_indev_set_type(ptr noundef nonnull %3, i32 noundef 2) #3
  tail call void @lv_indev_set_read_cb(ptr noundef nonnull %3, ptr noundef nonnull @sdl_keyboard_read) #3
  tail call void @lv_indev_set_driver_data(ptr noundef nonnull %3, ptr noundef nonnull %1) #3
  tail call void @lv_indev_set_mode(ptr noundef nonnull %3, i32 noundef 2) #3
  tail call void @lv_indev_add_event_cb(ptr noundef nonnull %3, ptr noundef nonnull @release_indev_cb, i32 noundef 41, ptr noundef nonnull %3) #3
  ret ptr %3
}